
/home/ya/scr1/build/verilator_AHB_MAX_imc_IPIC_1_TCM_1_VIRQ_1_TRACE_0/ma_fetch.elf:     file format elf32-littleriscv
/home/ya/scr1/build/verilator_AHB_MAX_imc_IPIC_1_TCM_1_VIRQ_1_TRACE_0/ma_fetch.elf
architecture: riscv:rv32, flags 0x00000112:
EXEC_P, HAS_SYMS, D_PAGED
start address 0x0000a000

Program Header:
0x70000003 off    0x00002388 vaddr 0x00000000 paddr 0x00000000 align 2**0
         filesz 0x0000003a memsz 0x00000000 flags r--
    LOAD off    0x00001000 vaddr 0x00000000 paddr 0x00000000 align 2**12
         filesz 0x0000096c memsz 0x0000096c flags r-x
    LOAD off    0x00002000 vaddr 0x0000a000 paddr 0x0000a000 align 2**12
         filesz 0x00000388 memsz 0x000003a0 flags rwx
    LOAD off    0x00000c00 vaddr 0x0000fc00 paddr 0x0000fc00 align 2**12
         filesz 0x00000000 memsz 0x00000400 flags rw-

Sections:
Idx Name              Size      VMA       LMA       File off  Algn  Flags
  0 .text.init        0000096c  00000000  00000000  00001000  2**6  CONTENTS, ALLOC, LOAD, READONLY, CODE
  1 .text.start       0000006c  0000a000  0000a000  00002000  2**0  CONTENTS, ALLOC, LOAD, READONLY, CODE
  2 .text             00000280  0000a080  0000a080  00002080  2**6  CONTENTS, ALLOC, LOAD, READONLY, CODE
  3 .data             00000020  0000a300  0000a300  00002300  2**4  CONTENTS, ALLOC, LOAD, DATA
  4 .tohost           00000048  0000a340  0000a340  00002340  2**6  CONTENTS, ALLOC, LOAD, DATA
  5 .sdata            00000018  0000a388  0000a388  00002388  2**0  ALLOC
  6 .tdata            00000000  0000a3a0  0000a3a0  00002388  2**0  CONTENTS, ALLOC, LOAD, DATA, THREAD_LOCAL
  7 .tbss             00000000  0000a3a0  0000a3a0  00000000  2**0  ALLOC, THREAD_LOCAL
  8 .bss              00000000  0000a3a0  0000a3a0  00002388  2**0  ALLOC
  9 .stack            00000400  0000fc00  0000fc00  00002c00  2**0  ALLOC
 10 .riscv.attributes 0000003a  00000000  00000000  00002388  2**0  CONTENTS, READONLY
SYMBOL TABLE:
00000000 l    d  .text.init	00000000 .text.init
0000a000 l    d  .text.start	00000000 .text.start
0000a080 l    d  .text	00000000 .text
0000a300 l    d  .data	00000000 .data
0000a340 l    d  .tohost	00000000 .tohost
0000a388 l    d  .sdata	00000000 .sdata
0000a3a0 l    d  .tdata	00000000 .tdata
0000a3a0 l    d  .tbss	00000000 .tbss
0000a3a0 l    d  .bss	00000000 .bss
0000fc00 l    d  .stack	00000000 .stack
00000000 l    d  .riscv.attributes	00000000 .riscv.attributes
00000000 l    df *ABS*	00000000 ma_fetch.o
0000a2c0 l       .text	00000000 sc_exit
0000a080 l       .text	00000000 MSG_TRAP
000008c0 l       .text.init	00000000 trap_vector
000008ee l       .text.init	00000000 _report
000008ec l       .text.init	00000000 handle_exception
000008ec l       .text.init	00000000 other_exception
00000912 l       .text.init	00000000 skip_handle_breakpoint
00000902 l       .text.init	00000000 next_iter
0000a0c0 l       .text	00000000 _run_test
0000a1f8 l       .text	00000000 fail
0000a208 l       .text	00000000 pass
0000a274 l       .text	00000000 ecall
00000400 g       *ABS*	00000000 STACK_SIZE
0000ab88 g       .sdata	00000000 __global_pointer$
0000a320 g       .data	00000000 end_signature
0000a300 g       .data	00000000 begin_regstate
0000a320 g       .data	00000000 begin_signature
0000a000 g       .text.start	00000000 _start
00000020 g       *ABS*	00000000 CL_SIZE
000000f8 g       .text.init	00000000 SIM_STOP
0000a218  w      .text	00000000 mtvec_handler
0000a3a0 g       .bss	00000000 _end
0000a380 g       .tohost	00000000 fromhost
0000a340 g       .tohost	00000000 tohost
000000f4 g       .text.init	00000000 SIM_EXIT



Disassembly of section .text.init:

00000000 <SIM_EXIT-0xf4>:
	...

000000f4 <SIM_EXIT>:
  f4:	00000013          	nop

000000f8 <SIM_STOP>:
  f8:	0000006f          	j	f8 <SIM_STOP>
  fc:	ffff                	.insn	2, 0xffff
  fe:	ffff                	.insn	2, 0xffff
	...

000008c0 <trap_vector>:
 8c0:	34202773          	csrr	a4,mcause
 8c4:	47a1                	li	a5,8
 8c6:	02f70463          	beq	a4,a5,8ee <_report>
 8ca:	47a5                	li	a5,9
 8cc:	02f70163          	beq	a4,a5,8ee <_report>
 8d0:	47ad                	li	a5,11
 8d2:	00f70e63          	beq	a4,a5,8ee <_report>
 8d6:	0000a717          	auipc	a4,0xa
 8da:	94270713          	addi	a4,a4,-1726 # a218 <mtvec_handler>
 8de:	c311                	beqz	a4,8e2 <trap_vector+0x22>
 8e0:	8702                	jr	a4
 8e2:	34202773          	csrr	a4,mcause
 8e6:	00075363          	bgez	a4,8ec <handle_exception>
 8ea:	a009                	j	8ec <handle_exception>

000008ec <handle_exception>:
 8ec:	4505                	li	a0,1

000008ee <_report>:
 8ee:	8b8d                	andi	a5,a5,3
 8f0:	478d                	li	a5,3
 8f2:	02f70063          	beq	a4,a5,912 <skip_handle_breakpoint>
 8f6:	f0000837          	lui	a6,0xf0000
 8fa:	00009897          	auipc	a7,0x9
 8fe:	78688893          	addi	a7,a7,1926 # a080 <MSG_TRAP>

00000902 <next_iter>:
 902:	00088783          	lb	a5,0(a7)
 906:	c791                	beqz	a5,912 <skip_handle_breakpoint>
 908:	00f82023          	sw	a5,0(a6) # f0000000 <__global_pointer$+0xefff5478>
 90c:	0885                	addi	a7,a7,1
 90e:	ff5ff06f          	j	902 <next_iter>

00000912 <skip_handle_breakpoint>:
 912:	1af0906f          	j	a2c0 <sc_exit>
 916:	00000013          	nop
 91a:	00000013          	nop
 91e:	00000013          	nop
 922:	00000013          	nop
 926:	00000013          	nop
 92a:	00000013          	nop
 92e:	00000013          	nop
 932:	00000013          	nop
 936:	00000013          	nop
 93a:	00000013          	nop
 93e:	0001                	nop
	...

Disassembly of section .text.start:

0000a000 <_start>:
    a000:	f1402573          	csrr	a0,mhartid
    a004:	e101                	bnez	a0,a004 <_start+0x4>
    a006:	4e01                	li	t3,0
    a008:	ffff7297          	auipc	t0,0xffff7
    a00c:	8b828293          	addi	t0,t0,-1864 # 8c0 <trap_vector>
    a010:	30529073          	csrw	mtvec,t0
    a014:	4505                	li	a0,1
    a016:	057e                	slli	a0,a0,0x1f
    a018:	00054863          	bltz	a0,a028 <_start+0x28>
    a01c:	0ff0000f          	fence
    a020:	85f2                	mv	a1,t3
    a022:	4501                	li	a0,0
    a024:	00000073          	ecall
    a028:	00000293          	li	t0,0
    a02c:	00028f63          	beqz	t0,a04a <_start+0x4a>
    a030:	10529073          	csrw	stvec,t0
    a034:	62ad                	lui	t0,0xb
    a036:	10928293          	addi	t0,t0,265 # b109 <__global_pointer$+0x581>
    a03a:	30229073          	csrw	medeleg,t0
    a03e:	30202373          	csrr	t1,medeleg
    a042:	00628463          	beq	t0,t1,a04a <_start+0x4a>
    a046:	8a7f606f          	j	8ec <handle_exception>
    a04a:	30005073          	csrwi	mstatus,0
    a04e:	6509                	lui	a0,0x2
    a050:	80050513          	addi	a0,a0,-2048 # 1800 <skip_handle_breakpoint+0xeee>
    a054:	30052073          	csrs	mstatus,a0
    a058:	00000297          	auipc	t0,0x0
    a05c:	06828293          	addi	t0,t0,104 # a0c0 <_run_test>
    a060:	34129073          	csrw	mepc,t0
    a064:	f1402573          	csrr	a0,mhartid
    a068:	30200073          	mret

Disassembly of section .text:

0000a080 <MSG_TRAP>:
    a080:	abc2                	.insn	2, 0xabc2
    a082:	696d                	lui	s2,0x1b
    a084:	696c6173          	csrrsi	sp,0x696,24
    a088:	bbc26e67          	.insn	4, 0xbbc26e67
    a08c:	0000                	unimp
    a08e:	00000013          	nop
    a092:	00000013          	nop
    a096:	00000013          	nop
    a09a:	00000013          	nop
    a09e:	00000013          	nop
    a0a2:	00000013          	nop
    a0a6:	00000013          	nop
    a0aa:	00000013          	nop
    a0ae:	00000013          	nop
    a0b2:	00000013          	nop
    a0b6:	00000013          	nop
    a0ba:	00000013          	nop
    a0be:	0001                	nop

0000a0c0 <_run_test>:
    a0c0:	00200e13          	li	t3,2
    a0c4:	00000313          	li	t1,0
    a0c8:	00000297          	auipc	t0,0x0
    a0cc:	00c28293          	addi	t0,t0,12 # a0d4 <_run_test+0x14>
    a0d0:	00228367          	jalr	t1,2(t0)
    a0d4:	a011                	j	a0d8 <_run_test+0x18>
    a0d6:	a019                	j	a0dc <_run_test+0x1c>
    a0d8:	1200006f          	j	a1f8 <fail>
    a0dc:	00300e13          	li	t3,3
    a0e0:	00000297          	auipc	t0,0x0
    a0e4:	00c28293          	addi	t0,t0,12 # a0ec <_run_test+0x2c>
    a0e8:	00128367          	jalr	t1,1(t0)
    a0ec:	0080006f          	j	a0f4 <_run_test+0x34>
    a0f0:	1080006f          	j	a1f8 <fail>
    a0f4:	00400e13          	li	t3,4
    a0f8:	00000313          	li	t1,0
    a0fc:	00000297          	auipc	t0,0x0
    a100:	00c28293          	addi	t0,t0,12 # a108 <_run_test+0x48>
    a104:	00328367          	jalr	t1,3(t0)
    a108:	a011                	j	a10c <_run_test+0x4c>
    a10a:	a019                	j	a110 <_run_test+0x50>
    a10c:	0ec0006f          	j	a1f8 <fail>
    a110:	00500e13          	li	t3,5
    a114:	00000313          	li	t1,0
    a118:	00000297          	auipc	t0,0x0
    a11c:	00c28293          	addi	t0,t0,12 # a124 <_run_test+0x64>
    a120:	0060036f          	jal	t1,a126 <_run_test+0x66>
    a124:	a011                	j	a128 <_run_test+0x68>
    a126:	a019                	j	a12c <_run_test+0x6c>
    a128:	0d00006f          	j	a1f8 <fail>
    a12c:	00600e13          	li	t3,6
    a130:	00000313          	li	t1,0
    a134:	00000297          	auipc	t0,0x0
    a138:	00c28293          	addi	t0,t0,12 # a140 <_run_test+0x80>
    a13c:	00000363          	beqz	zero,a142 <_run_test+0x82>
    a140:	a011                	j	a144 <_run_test+0x84>
    a142:	a019                	j	a148 <_run_test+0x88>
    a144:	0b40006f          	j	a1f8 <fail>
    a148:	00700e13          	li	t3,7
    a14c:	00001563          	bnez	zero,a156 <_run_test+0x96>
    a150:	00c0006f          	j	a15c <_run_test+0x9c>
    a154:	a009                	j	a156 <_run_test+0x96>
    a156:	a009                	j	a158 <_run_test+0x98>
    a158:	0a00006f          	j	a1f8 <fail>
    a15c:	30126073          	csrsi	misa,4
    a160:	301023f3          	csrr	t2,misa
    a164:	0043f393          	andi	t2,t2,4
    a168:	0a038063          	beqz	t2,a208 <pass>
    a16c:	30127073          	csrci	misa,4
    a170:	301023f3          	csrr	t2,misa
    a174:	0043f393          	andi	t2,t2,4
    a178:	08039863          	bnez	t2,a208 <pass>
    a17c:	305022f3          	csrr	t0,mtvec
    a180:	00000317          	auipc	t1,0x0
    a184:	01630313          	addi	t1,t1,22 # a196 <_run_test+0xd6>
    a188:	00230313          	addi	t1,t1,2
    a18c:	30531073          	csrw	mtvec,t1
    a190:	0060006f          	j	a196 <_run_test+0xd6>
    a194:	0001                	nop
    a196:	a88d                	j	a208 <pass>
    a198:	30529073          	csrw	mtvec,t0
    a19c:	30126073          	csrsi	misa,4
    a1a0:	00800e13          	li	t3,8
    a1a4:	301023f3          	csrr	t2,misa
    a1a8:	0043f393          	andi	t2,t2,4
    a1ac:	04038e63          	beqz	t2,a208 <pass>
    a1b0:	0001                	nop
    a1b2:	30127073          	csrci	misa,4
    a1b6:	0001                	nop
    a1b8:	301023f3          	csrr	t2,misa
    a1bc:	0043f393          	andi	t2,t2,4
    a1c0:	02038c63          	beqz	t2,a1f8 <fail>
    a1c4:	00000297          	auipc	t0,0x0
    a1c8:	02828293          	addi	t0,t0,40 # a1ec <_run_test+0x12c>
    a1cc:	ffe28293          	addi	t0,t0,-2
    a1d0:	34129073          	csrw	mepc,t0
    a1d4:	30127073          	csrci	misa,4
    a1d8:	000023b7          	lui	t2,0x2
    a1dc:	80038393          	addi	t2,t2,-2048 # 1800 <skip_handle_breakpoint+0xeee>
    a1e0:	3003a073          	csrs	mstatus,t2
    a1e4:	30200073          	mret
    a1e8:	00000263          	beqz	zero,a1ec <_run_test+0x12c>
    a1ec:	30126073          	csrsi	misa,4
    a1f0:	0180006f          	j	a208 <pass>
    a1f4:	01c01a63          	bne	zero,t3,a208 <pass>

0000a1f8 <fail>:
    a1f8:	0ff0000f          	fence
    a1fc:	000e0593          	mv	a1,t3
    a200:	00100513          	li	a0,1
    a204:	00000073          	ecall

0000a208 <pass>:
    a208:	0ff0000f          	fence
    a20c:	000e0593          	mv	a1,t3
    a210:	00000513          	li	a0,0
    a214:	00000073          	ecall

0000a218 <mtvec_handler>:
    a218:	00200513          	li	a0,2
    a21c:	02ae0063          	beq	t3,a0,a23c <mtvec_handler+0x24>
    a220:	00400513          	li	a0,4
    a224:	00ae0c63          	beq	t3,a0,a23c <mtvec_handler+0x24>
    a228:	00500513          	li	a0,5
    a22c:	00ae0863          	beq	t3,a0,a23c <mtvec_handler+0x24>
    a230:	00600513          	li	a0,6
    a234:	00ae0463          	beq	t3,a0,a23c <mtvec_handler+0x24>
    a238:	fc1ff06f          	j	a1f8 <fail>
    a23c:	fa031ee3          	bnez	t1,a1f8 <fail>
    a240:	00000593          	li	a1,0
    a244:	34202573          	csrr	a0,mcause
    a248:	fab518e3          	bne	a0,a1,a1f8 <fail>
    a24c:	341025f3          	csrr	a1,mepc
    a250:	00458593          	addi	a1,a1,4
    a254:	fab292e3          	bne	t0,a1,a1f8 <fail>
    a258:	34302573          	csrr	a0,mtval
    a25c:	00050663          	beqz	a0,a268 <mtvec_handler+0x50>
    a260:	ffe50513          	addi	a0,a0,-2
    a264:	f8551ae3          	bne	a0,t0,a1f8 <fail>
    a268:	00858593          	addi	a1,a1,8
    a26c:	34159073          	csrw	mepc,a1
    a270:	30200073          	mret

0000a274 <ecall>:
    a274:	00000073          	ecall
	...

0000a2c0 <sc_exit>:
    a2c0:	ffff6297          	auipc	t0,0xffff6
    a2c4:	e3428293          	addi	t0,t0,-460 # f4 <SIM_EXIT>
    a2c8:	8282                	jr	t0
    a2ca:	00000013          	nop
    a2ce:	00000013          	nop
    a2d2:	00000013          	nop
    a2d6:	00000013          	nop
    a2da:	00000013          	nop
    a2de:	0001                	nop
	...

Disassembly of section .tohost:

0000a340 <tohost>:
	...

0000a380 <fromhost>:
	...
